target datalayout = "e-m:e-p270:32:32-p271:32:32-p272:64:64-i64:64-i128:128-f80:128-n8:16:32:64-S128"
target triple = "x86_64-pc-linux-gnu"

%struct.jawt_DrawingSurface = type { ptr, ptr, ptr, ptr, ptr, ptr }
%struct.JNINativeInterface_ = type { ptr, ptr, ptr, ptr, ptr, ptr, ptr, ptr, ptr, ptr, ptr, ptr, ptr, ptr, ptr, ptr, ptr, ptr, ptr, ptr, ptr, ptr, ptr, ptr, ptr, ptr, ptr, ptr, ptr, ptr, ptr, ptr, ptr, ptr, ptr, ptr, ptr, ptr, ptr, ptr, ptr, ptr, ptr, ptr, ptr, ptr, ptr, ptr, ptr, ptr, ptr, ptr, ptr, ptr, ptr, ptr, ptr, ptr, ptr, ptr, ptr, ptr, ptr, ptr, ptr, ptr, ptr, ptr, ptr, ptr, ptr, ptr, ptr, ptr, ptr, ptr, ptr, ptr, ptr, ptr, ptr, ptr, ptr, ptr, ptr, ptr, ptr, ptr, ptr, ptr, ptr, ptr, ptr, ptr, ptr, ptr, ptr, ptr, ptr, ptr, ptr, ptr, ptr, ptr, ptr, ptr, ptr, ptr, ptr, ptr, ptr, ptr, ptr, ptr, ptr, ptr, ptr, ptr, ptr, ptr, ptr, ptr, ptr, ptr, ptr, ptr, ptr, ptr, ptr, ptr, ptr, ptr, ptr, ptr, ptr, ptr, ptr, ptr, ptr, ptr, ptr, ptr, ptr, ptr, ptr, ptr, ptr, ptr, ptr, ptr, ptr, ptr, ptr, ptr, ptr, ptr, ptr, ptr, ptr, ptr, ptr, ptr, ptr, ptr, ptr, ptr, ptr, ptr, ptr, ptr, ptr, ptr, ptr, ptr, ptr, ptr, ptr, ptr, ptr, ptr, ptr, ptr, ptr, ptr, ptr, ptr, ptr, ptr, ptr, ptr, ptr, ptr, ptr, ptr, ptr, ptr, ptr, ptr, ptr, ptr, ptr, ptr, ptr, ptr, ptr, ptr, ptr, ptr, ptr, ptr, ptr, ptr, ptr, ptr, ptr, ptr, ptr, ptr, ptr, ptr, ptr, ptr, ptr, ptr, ptr, ptr, ptr, ptr, ptr, ptr, ptr, ptr, ptr, ptr, ptr }

@.str = private unnamed_addr constant [19 x i8] c"java/awt/Component\00", align 1

; Function Attrs: nounwind uwtable
define ptr @awt_GetDrawingSurface(ptr noundef %0, ptr noundef %1) #0 {
  %3 = alloca ptr, align 8
  %4 = alloca ptr, align 8
  %5 = alloca ptr, align 8
  %6 = alloca ptr, align 8
  %7 = alloca ptr, align 8
  store ptr %0, ptr %4, align 8
  store ptr %1, ptr %5, align 8
  %8 = load ptr, ptr %4, align 8
  %9 = load ptr, ptr %8, align 8
  %10 = getelementptr inbounds %struct.JNINativeInterface_, ptr %9, i32 0, i32 6
  %11 = load ptr, ptr %10, align 8
  %12 = load ptr, ptr %4, align 8
  %13 = call ptr %11(ptr noundef %12, ptr noundef @.str)
  store ptr %13, ptr %6, align 8
  br label %14

14:                                               ; preds = %2
  %15 = load ptr, ptr %6, align 8
  %16 = icmp eq ptr %15, null
  br i1 %16, label %17, label %18

17:                                               ; preds = %14
  store ptr null, ptr %3, align 8
  br label %53

18:                                               ; preds = %14
  br label %19

19:                                               ; preds = %18
  %20 = load ptr, ptr %4, align 8
  %21 = load ptr, ptr %20, align 8
  %22 = getelementptr inbounds %struct.JNINativeInterface_, ptr %21, i32 0, i32 32
  %23 = load ptr, ptr %22, align 8
  %24 = load ptr, ptr %4, align 8
  %25 = load ptr, ptr %5, align 8
  %26 = load ptr, ptr %6, align 8
  %27 = call zeroext i8 %23(ptr noundef %24, ptr noundef %25, ptr noundef %26)
  %28 = icmp ne i8 %27, 0
  br i1 %28, label %30, label %29

29:                                               ; preds = %19
  store ptr null, ptr %3, align 8
  br label %53

30:                                               ; preds = %19
  %31 = call noalias ptr @malloc(i64 noundef 48) #4
  store ptr %31, ptr %7, align 8
  %32 = load ptr, ptr %4, align 8
  %33 = load ptr, ptr %7, align 8
  %34 = getelementptr inbounds %struct.jawt_DrawingSurface, ptr %33, i32 0, i32 0
  store ptr %32, ptr %34, align 8
  %35 = load ptr, ptr %4, align 8
  %36 = load ptr, ptr %35, align 8
  %37 = getelementptr inbounds %struct.JNINativeInterface_, ptr %36, i32 0, i32 21
  %38 = load ptr, ptr %37, align 8
  %39 = load ptr, ptr %4, align 8
  %40 = load ptr, ptr %5, align 8
  %41 = call ptr %38(ptr noundef %39, ptr noundef %40)
  %42 = load ptr, ptr %7, align 8
  %43 = getelementptr inbounds %struct.jawt_DrawingSurface, ptr %42, i32 0, i32 1
  store ptr %41, ptr %43, align 8
  %44 = load ptr, ptr %7, align 8
  %45 = getelementptr inbounds %struct.jawt_DrawingSurface, ptr %44, i32 0, i32 2
  store ptr @awt_DrawingSurface_Lock, ptr %45, align 8
  %46 = load ptr, ptr %7, align 8
  %47 = getelementptr inbounds %struct.jawt_DrawingSurface, ptr %46, i32 0, i32 3
  store ptr @awt_DrawingSurface_GetDrawingSurfaceInfo, ptr %47, align 8
  %48 = load ptr, ptr %7, align 8
  %49 = getelementptr inbounds %struct.jawt_DrawingSurface, ptr %48, i32 0, i32 4
  store ptr @awt_DrawingSurface_FreeDrawingSurfaceInfo, ptr %49, align 8
  %50 = load ptr, ptr %7, align 8
  %51 = getelementptr inbounds %struct.jawt_DrawingSurface, ptr %50, i32 0, i32 5
  store ptr @awt_DrawingSurface_Unlock, ptr %51, align 8
  %52 = load ptr, ptr %7, align 8
  store ptr %52, ptr %3, align 8
  br label %53

53:                                               ; preds = %30, %29, %17
  %54 = load ptr, ptr %3, align 8
  ret ptr %54
}