; Function Attrs: nounwind uwtable
define noundef ptr @awt_GetDrawingSurface(ptr noundef %0, ptr noundef %1) local_unnamed_addr #0 {
  %3 = load ptr, ptr %0, align 8
  %4 = getelementptr inbounds i8, ptr %3, i64 48
  %5 = load ptr, ptr %4, align 8
  %6 = tail call ptr %5(ptr noundef nonnull %0, ptr noundef nonnull @.str) #5
  %7 = icmp eq ptr %6, null
  br i1 %7, label %24, label %8

8:                                                ; preds = %2
  %9 = load ptr, ptr %0, align 8
  %10 = getelementptr inbounds i8, ptr %9, i64 256
  %11 = load ptr, ptr %10, align 8
  %12 = tail call zeroext i8 %11(ptr noundef nonnull %0, ptr noundef %1, ptr noundef nonnull %6) #5
  %.not = icmp eq i8 %12, 0
  br i1 %.not, label %24, label %13

13:                                               ; preds = %8
  %14 = tail call noalias dereferenceable_or_null(48) ptr @malloc(i64 noundef 48) #6
  store ptr %0, ptr %14, align 8
  %15 = load ptr, ptr %0, align 8
  %16 = getelementptr inbounds i8, ptr %15, i64 168
  %17 = load ptr, ptr %16, align 8
  %18 = tail call ptr %17(ptr noundef nonnull %0, ptr noundef %1) #5
  %19 = getelementptr inbounds i8, ptr %14, i64 8
  store ptr %18, ptr %19, align 8
  %20 = getelementptr inbounds i8, ptr %14, i64 16
  store ptr @awt_DrawingSurface_Lock, ptr %20, align 8
  %21 = getelementptr inbounds i8, ptr %14, i64 24
  store ptr @awt_DrawingSurface_GetDrawingSurfaceInfo, ptr %21, align 8
  %22 = getelementptr inbounds i8, ptr %14, i64 32
  store ptr @awt_DrawingSurface_FreeDrawingSurfaceInfo, ptr %22, align 8
  %23 = getelementptr inbounds i8, ptr %14, i64 40
  store ptr @awt_DrawingSurface_Unlock, ptr %23, align 8
  br label %24

24:                                               ; preds = %8, %2, %13
  %.0 = phi ptr [ %14, %13 ], [ null, %2 ], [ null, %8 ]
  ret ptr %.0
}